target datalayout = "e-m:e-p270:32:32-p271:32:32-p272:64:64-i64:64-i128:128-f80:128-n8:16:32:64-S128"
target triple = "x86_64-pc-linux-gnu"

%"class.google::protobuf::io::ZeroCopyInputStream" = type { ptr }
%"class.google::protobuf::internal::LogMessage" = type { i32, ptr, i32, %"class.std::__cxx11::basic_string" }
%"class.std::__cxx11::basic_string" = type { %"struct.std::__cxx11::basic_string<char>::_Alloc_hider", i64, %union.anon }
%"struct.std::__cxx11::basic_string<char>::_Alloc_hider" = type { ptr }
%union.anon = type { i64, [8 x i8] }
%"class.google::protobuf::internal::LogFinisher" = type { i8 }
%"class.google::protobuf::io::ConcatenatingInputStream" = type { %"class.google::protobuf::io::ZeroCopyInputStream", ptr, i32, i64 }

@.str = private unnamed_addr constant [157 x i8] c"generated/home/dtcxzyw/WorkSpace/Projects/compilers/llvm-opt-benchmark/bench/opencv/opencv/3rdparty/protobuf/src/google/protobuf/io/zero_copy_stream_impl.cc\00", align 1
@.str.4 = private unnamed_addr constant [57 x i8] c"CHECK failed: (final_byte_count) < (target_byte_count): \00", align 1

; Function Attrs: mustprogress uwtable
define hidden noundef zeroext i1 @_ZN6google8protobuf2io24ConcatenatingInputStream4SkipEi(ptr noundef nonnull align 8 dereferenceable(32) %0, i32 noundef %1) unnamed_addr #4 align 2 personality ptr @__gxx_personality_v0 {
  %3 = alloca i1, align 1
  %4 = alloca ptr, align 8
  %5 = alloca i32, align 4
  %6 = alloca i64, align 8
  %7 = alloca i32, align 4
  %8 = alloca i64, align 8
  %9 = alloca %"class.google::protobuf::internal::LogMessage", align 8
  %10 = alloca i1, align 1
  %11 = alloca i1, align 1
  %12 = alloca ptr, align 8
  %13 = alloca i32, align 4
  %14 = alloca %"class.google::protobuf::internal::LogFinisher", align 1
  store ptr %0, ptr %4, align 8, !tbaa !76
  store i32 %1, ptr %5, align 4, !tbaa !8
  %15 = load ptr, ptr %4, align 8
  br label %16

16:                                               ; preds = %100, %2
  %17 = getelementptr inbounds nuw %"class.google::protobuf::io::ConcatenatingInputStream", ptr %15, i32 0, i32 2
  %18 = load i32, ptr %17, align 8, !tbaa !83
  %19 = icmp sgt i32 %18, 0
  br i1 %19, label %20, label %101

20:                                               ; preds = %16
  call void @llvm.lifetime.start.p0(i64 8, ptr %6) #3
  %21 = getelementptr inbounds nuw %"class.google::protobuf::io::ConcatenatingInputStream", ptr %15, i32 0, i32 1
  %22 = load ptr, ptr %21, align 8, !tbaa !80
  %23 = getelementptr inbounds ptr, ptr %22, i64 0
  %24 = load ptr, ptr %23, align 8, !tbaa !12
  %25 = load ptr, ptr %24, align 8, !tbaa !10
  %26 = getelementptr inbounds ptr, ptr %25, i64 5
  %27 = load ptr, ptr %26, align 8
  %28 = call noundef i64 %27(ptr noundef nonnull align 8 dereferenceable(8) %24)
  %29 = load i32, ptr %5, align 4, !tbaa !8
  %30 = sext i32 %29 to i64
  %31 = add nsw i64 %28, %30
  store i64 %31, ptr %6, align 8, !tbaa !86
  %32 = getelementptr inbounds nuw %"class.google::protobuf::io::ConcatenatingInputStream", ptr %15, i32 0, i32 1
  %33 = load ptr, ptr %32, align 8, !tbaa !80
  %34 = getelementptr inbounds ptr, ptr %33, i64 0
  %35 = load ptr, ptr %34, align 8, !tbaa !12
  %36 = load i32, ptr %5, align 4, !tbaa !8
  %37 = load ptr, ptr %35, align 8, !tbaa !10
  %38 = getelementptr inbounds ptr, ptr %37, i64 4
  %39 = load ptr, ptr %38, align 8
  %40 = call noundef zeroext i1 %39(ptr noundef nonnull align 8 dereferenceable(8) %35, i32 noundef %36)
  br i1 %40, label %41, label %42

41:                                               ; preds = %20
  store i1 true, ptr %3, align 1
  store i32 1, ptr %7, align 4
  br label %98

42:                                               ; preds = %20
  call void @llvm.lifetime.start.p0(i64 8, ptr %8) #3
  %43 = getelementptr inbounds nuw %"class.google::protobuf::io::ConcatenatingInputStream", ptr %15, i32 0, i32 1
  %44 = load ptr, ptr %43, align 8, !tbaa !80
  %45 = getelementptr inbounds ptr, ptr %44, i64 0
  %46 = load ptr, ptr %45, align 8, !tbaa !12
  %47 = load ptr, ptr %46, align 8, !tbaa !10
  %48 = getelementptr inbounds ptr, ptr %47, i64 5
  %49 = load ptr, ptr %48, align 8
  %50 = call noundef i64 %49(ptr noundef nonnull align 8 dereferenceable(8) %46)
  store i64 %50, ptr %8, align 8, !tbaa !86
  br label %51

51:                                               ; preds = %67, %42
  br i1 false, label %52, label %83

52:                                               ; preds = %51
  %53 = load i64, ptr %8, align 8, !tbaa !86
  %54 = load i64, ptr %6, align 8, !tbaa !86
  %55 = icmp slt i64 %53, %54
  store i1 false, ptr %10, align 1
  store i1 false, ptr %11, align 1
  call void @llvm.lifetime.start.p0(i64 1, ptr %14) #3
  br i1 %55, label %56, label %57

56:                                               ; preds = %52
  br label %61

57:                                               ; preds = %52
  call void @llvm.lifetime.start.p0(i64 56, ptr %9) #3
  store i1 true, ptr %10, align 1
  call void @_ZN6google8protobuf8internal10LogMessageC1ENS0_8LogLevelEPKci(ptr noundef nonnull align 8 dereferenceable(56) %9, i32 noundef 3, ptr noundef @.str, i32 noundef 347)
  store i1 true, ptr %11, align 1
  %58 = invoke noundef nonnull align 8 dereferenceable(56) ptr @_ZN6google8protobuf8internal10LogMessagelsEPKc(ptr noundef nonnull align 8 dereferenceable(56) %9, ptr noundef @.str.4)
          to label %59 unwind label %68

59:                                               ; preds = %57
  invoke void @_ZN6google8protobuf8internal11LogFinisheraSERNS1_10LogMessageE(ptr noundef nonnull align 1 dereferenceable(1) %14, ptr noundef nonnull align 8 dereferenceable(56) %58)
          to label %60 unwind label %72

60:                                               ; preds = %59
  br label %61

61:                                               ; preds = %60, %56
  call void @llvm.lifetime.end.p0(i64 1, ptr %14) #3
  %62 = load i1, ptr %11, align 1
  br i1 %62, label %63, label %64

63:                                               ; preds = %61
  call void @_ZN6google8protobuf8internal10LogMessageD1Ev(ptr noundef nonnull align 8 dereferenceable(56) %9) #3
  br label %64

64:                                               ; preds = %63, %61
  %65 = load i1, ptr %10, align 1
  br i1 %65, label %66, label %67

66:                                               ; preds = %64
  call void @llvm.lifetime.end.p0(i64 56, ptr %9) #3
  br label %67

67:                                               ; preds = %66, %64
  br label %51, !llvm.loop !87

68:                                               ; preds = %57
  %69 = landingpad { ptr, i32 }
          cleanup
  %70 = extractvalue { ptr, i32 } %69, 0
  store ptr %70, ptr %12, align 8
  %71 = extractvalue { ptr, i32 } %69, 1
  store i32 %71, ptr %13, align 4
  br label %76

72:                                               ; preds = %59
  %73 = landingpad { ptr, i32 }
          cleanup
  %74 = extractvalue { ptr, i32 } %73, 0
  store ptr %74, ptr %12, align 8
  %75 = extractvalue { ptr, i32 } %73, 1
  store i32 %75, ptr %13, align 4
  call void @llvm.lifetime.end.p0(i64 1, ptr %14) #3
  br label %76

76:                                               ; preds = %72, %68
  %77 = load i1, ptr %11, align 1
  br i1 %77, label %78, label %79

78:                                               ; preds = %76
  call void @_ZN6google8protobuf8internal10LogMessageD1Ev(ptr noundef nonnull align 8 dereferenceable(56) %9) #3
  br label %79

79:                                               ; preds = %78, %76
  %80 = load i1, ptr %10, align 1
  br i1 %80, label %81, label %82

81:                                               ; preds = %79
  call void @llvm.lifetime.end.p0(i64 56, ptr %9) #3
  br label %82

82:                                               ; preds = %81, %79
  call void @llvm.lifetime.end.p0(i64 8, ptr %8) #3
  call void @llvm.lifetime.end.p0(i64 8, ptr %6) #3
  br label %104

83:                                               ; preds = %51
  %84 = load i64, ptr %6, align 8, !tbaa !86
  %85 = load i64, ptr %8, align 8, !tbaa !86
  %86 = sub nsw i64 %84, %85
  %87 = trunc i64 %86 to i32
  store i32 %87, ptr %5, align 4, !tbaa !8
  %88 = load i64, ptr %8, align 8, !tbaa !86
  %89 = getelementptr inbounds nuw %"class.google::protobuf::io::ConcatenatingInputStream", ptr %15, i32 0, i32 3
  %90 = load i64, ptr %89, align 8, !tbaa !84
  %91 = add nsw i64 %90, %88
  store i64 %91, ptr %89, align 8, !tbaa !84
  %92 = getelementptr inbounds nuw %"class.google::protobuf::io::ConcatenatingInputStream", ptr %15, i32 0, i32 1
  %93 = load ptr, ptr %92, align 8, !tbaa !80
  %94 = getelementptr inbounds nuw ptr, ptr %93, i32 1
  store ptr %94, ptr %92, align 8, !tbaa !80
  %95 = getelementptr inbounds nuw %"class.google::protobuf::io::ConcatenatingInputStream", ptr %15, i32 0, i32 2
  %96 = load i32, ptr %95, align 8, !tbaa !83
  %97 = add nsw i32 %96, -1
  store i32 %97, ptr %95, align 8, !tbaa !83
  call void @llvm.lifetime.end.p0(i64 8, ptr %8) #3
  store i32 0, ptr %7, align 4
  br label %98

98:                                               ; preds = %83, %41
  call void @llvm.lifetime.end.p0(i64 8, ptr %6) #3
  %99 = load i32, ptr %7, align 4
  switch i32 %99, label %109 [
    i32 0, label %100
    i32 1, label %102
  ]

100:                                              ; preds = %98
  br label %16, !llvm.loop !88

101:                                              ; preds = %16
  store i1 false, ptr %3, align 1
  br label %102

102:                                              ; preds = %101, %98
  %103 = load i1, ptr %3, align 1
  ret i1 %103

104:                                              ; preds = %82
  %105 = load ptr, ptr %12, align 8
  %106 = load i32, ptr %13, align 4
  %107 = insertvalue { ptr, i32 } poison, ptr %105, 0
  %108 = insertvalue { ptr, i32 } %107, i32 %106, 1
  resume { ptr, i32 } %108

109:                                              ; preds = %98
  unreachable
}